; Function Attrs: nounwind uwtable
define internal fastcc range(i32 -27136, 1) i32 @ssl_write_extended_ms_ext(ptr noundef %0, ptr noundef %1, ptr noundef %2, ptr noundef nonnull writeonly captures(none) initializes((0, 8)) %3) unnamed_addr #0 {
  store i64 0, ptr %3, align 8, !tbaa !3
  %5 = load ptr, ptr %0, align 8, !tbaa !19
  %6 = getelementptr inbounds nuw i8, ptr %5, i64 14
  %7 = load i8, ptr %6, align 2, !tbaa !36
  %8 = icmp eq i8 %7, 0
  br i1 %8, label %18, label %9

9:                                                ; preds = %4
  tail call void (ptr, i32, ptr, i32, ptr, ...) @mbedtls_debug_print_msg(ptr noundef nonnull %0, i32 noundef 3, ptr noundef nonnull @.str, i32 noundef 339, ptr noundef nonnull @.str.15) #14
  %10 = icmp ule ptr %1, %2
  %11 = ptrtoint ptr %2 to i64
  %12 = ptrtoint ptr %1 to i64
  %13 = sub i64 %11, %12
  %14 = icmp ugt i64 %13, 3
  %narrow.i.not = and i1 %10, %14
  br i1 %narrow.i.not, label %15, label %18

15:                                               ; preds = %9
  store i16 5888, ptr %1, align 1
  %16 = getelementptr inbounds nuw i8, ptr %1, i64 2
  %17 = getelementptr inbounds nuw i8, ptr %1, i64 3
  store i8 0, ptr %16, align 1, !tbaa !18
  store i8 0, ptr %17, align 1, !tbaa !18
  store i64 4, ptr %3, align 8, !tbaa !3
  br label %18

18:                                               ; preds = %9, %4, %15
  %.0 = phi i32 [ 0, %15 ], [ 0, %4 ], [ -27136, %9 ]
  ret i32 %.0
}